Certificate:
    Data:
        Version: 3 (0x2)
        Serial Number: 15261717510445261390 (0xd3cc83373872e24e)
    Signature Algorithm: sha256WithRSAEncryption
        Issuer: C=TR, ST=Ankara, O=METU, OU=CENG, CN=localhost/emailAddress=mail@localhost
        Validity
            Not Before: Dec 29 00:18:59 2015 GMT
            Not After : Dec 28 00:18:59 2018 GMT
        Subject: C=TR, ST=Ankara, O=METU, OU=CENG, CN=localhost/emailAddress=mail@localhost
        Subject Public Key Info:
            Public Key Algorithm: rsaEncryption
                Public-Key: (2048 bit)
                Modulus:
                    00:b4:ca:a3:4a:6d:53:3d:b2:8a:6e:06:0f:04:46:
                    8d:ea:d2:c3:eb:05:ce:a6:2c:4d:e1:39:b1:a1:42:
                    64:eb:8e:db:bf:6d:b3:95:7d:2a:34:b6:73:e0:b5:
                    60:a7:a9:c6:81:9b:f2:6b:9a:68:dd:d0:d1:b0:09:
                    67:c7:1e:fc:c0:e8:42:c2:14:a1:09:4a:14:de:06:
                    1a:80:af:69:9f:08:0b:ab:4d:c2:15:da:73:e4:cd:
                    c9:41:77:94:a5:34:01:e1:cf:a5:fd:db:57:39:70:
                    51:3b:9c:89:83:93:48:a4:b0:97:c6:11:2f:6f:83:
                    d3:c3:03:05:d2:bf:7a:12:6d:10:f8:ca:c3:d6:d5:
                    bb:54:b6:02:ab:f2:4b:6a:71:71:f5:33:98:e7:22:
                    ab:ea:63:7c:e7:41:d3:8f:5d:c9:7c:18:c9:5b:b5:
                    65:f9:fb:ba:12:78:d1:47:cf:e7:12:b9:ff:42:fa:
                    63:22:71:b9:43:8c:1a:85:0f:59:b1:9a:b9:ec:c7:
                    6c:71:d2:05:a0:70:0f:74:20:bd:43:5c:90:23:a0:
                    79:4d:66:59:0a:f6:2b:c1:20:64:49:f5:1d:8d:76:
                    47:05:99:8c:51:03:0f:ff:cf:ee:e0:18:5b:d4:8b:
                    75:57:f6:c3:36:1e:dc:44:d2:1d:c5:f2:39:26:39:
                    1b:fb
                Exponent: 65537 (0x10001)
        X509v3 extensions:
            X509v3 Subject Key Identifier: 
                26:64:EA:08:F4:7A:5E:C2:C5:09:61:17:92:93:3C:99:23:CD:CA:E1
            X509v3 Authority Key Identifier: 
                keyid:26:64:EA:08:F4:7A:5E:C2:C5:09:61:17:92:93:3C:99:23:CD:CA:E1

            X509v3 Basic Constraints: 
                CA:TRUE
    Signature Algorithm: sha256WithRSAEncryption
         52:9d:0c:f3:f5:34:c4:58:05:d9:4a:a8:e0:42:fd:4c:a6:cc:
         a8:ee:ff:cd:cc:ff:13:f9:ea:28:71:d4:b8:d3:39:2e:51:5d:
         26:27:1d:a5:24:67:16:ba:89:f7:3b:fe:41:02:7c:23:bc:1e:
         42:3d:c1:88:53:ed:74:cd:3d:2d:5d:67:1d:ee:fa:72:e4:fa:
         21:ee:0f:92:c2:98:19:db:d8:87:32:62:54:b2:4c:68:38:8d:
         12:68:be:14:a7:39:7e:55:6d:a0:84:3e:b1:36:b9:75:b7:52:
         7d:a2:0d:bb:bc:43:84:71:b8:6d:b4:39:8a:a1:72:5d:50:6e:
         eb:91:89:8b:fc:07:3a:89:c6:a0:a0:21:9f:37:aa:27:c9:31:
         05:f4:88:b1:a7:9f:d0:1b:ff:ef:af:56:b6:26:a1:48:91:15:
         ca:78:64:3d:bf:7e:84:49:d1:b6:f1:94:5f:d8:36:6f:09:8c:
         3c:53:6c:52:5a:a2:c3:ff:f4:09:81:1e:4e:92:a4:fa:54:4f:
         f9:b4:e4:ab:77:63:fc:17:1e:cf:1b:9a:55:81:2b:ad:40:eb:
         77:13:a4:9b:e7:0e:06:49:85:24:89:24:54:1f:a9:7b:18:1d:
         c8:ab:ce:a9:0e:41:f5:96:8f:63:d9:bb:aa:37:9d:ce:bc:fe:
         06:da:ae:d5
-----BEGIN CERTIFICATE-----
MIIDsTCCApmgAwIBAgIJANPMgzc4cuJOMA0GCSqGSIb3DQEBCwUAMG8xCzAJBgNV
BAYTAlRSMQ8wDQYDVQQIDAZBbmthcmExDTALBgNVBAoMBE1FVFUxDTALBgNVBAsM
BENFTkcxEjAQBgNVBAMMCWxvY2FsaG9zdDEdMBsGCSqGSIb3DQEJARYObWFpbEBs
b2NhbGhvc3QwHhcNMTUxMjI5MDAxODU5WhcNMTgxMjI4MDAxODU5WjBvMQswCQYD
VQQGEwJUUjEPMA0GA1UECAwGQW5rYXJhMQ0wCwYDVQQKDARNRVRVMQ0wCwYDVQQL
DARDRU5HMRIwEAYDVQQDDAlsb2NhbGhvc3QxHTAbBgkqhkiG9w0BCQEWDm1haWxA
bG9jYWxob3N0MIIBIjANBgkqhkiG9w0BAQEFAAOCAQ8AMIIBCgKCAQEAtMqjSm1T
PbKKbgYPBEaN6tLD6wXOpixN4TmxoUJk647bv22zlX0qNLZz4LVgp6nGgZvya5po
3dDRsAlnxx78wOhCwhShCUoU3gYagK9pnwgLq03CFdpz5M3JQXeUpTQB4c+l/dtX
OXBRO5yJg5NIpLCXxhEvb4PTwwMF0r96Em0Q+MrD1tW7VLYCq/JLanFx9TOY5yKr
6mN850HTj13JfBjJW7Vl+fu6EnjRR8/nErn/QvpjInG5Q4wahQ9ZsZq57MdscdIF
oHAPdCC9Q1yQI6B5TWZZCvYrwSBkSfUdjXZHBZmMUQMP/8/u4Bhb1It1V/bDNh7c
RNIdxfI5Jjkb+wIDAQABo1AwTjAdBgNVHQ4EFgQUJmTqCPR6XsLFCWEXkpM8mSPN
yuEwHwYDVR0jBBgwFoAUJmTqCPR6XsLFCWEXkpM8mSPNyuEwDAYDVR0TBAUwAwEB
/zANBgkqhkiG9w0BAQsFAAOCAQEAUp0M8/U0xFgF2Uqo4EL9TKbMqO7/zcz/E/nq
KHHUuNM5LlFdJicdpSRnFrqJ9zv+QQJ8I7weQj3BiFPtdM09LV1nHe76cuT6Ie4P
ksKYGdvYhzJiVLJMaDiNEmi+FKc5flVtoIQ+sTa5dbdSfaINu7xDhHG4bbQ5iqFy
XVBu65GJi/wHOonGoKAhnzeqJ8kxBfSIsaef0Bv/769WtiahSJEVynhkPb9+hEnR
tvGUX9g2bwmMPFNsUlqiw//0CYEeTpKk+lRP+bTkq3dj/BcezxuaVYErrUDrdxOk
m+cOBkmFJIkkVB+pexgdyKvOqQ5B9ZaPY9m7qjedzrz+Btqu1Q==
-----END CERTIFICATE-----
